#include <math.h>
#include <stdio.h>
#include <stdlib.h>
#include <string.h>
#include <iostream>
using namespace std;

//*************************************
//   ????** 
//   ?? 1200012872** 
//   2012.11.27** 
//*************************************


int factorization(int a, int k);

int main()
{
	int n, a;    
	cin >> n;
	for (int i = 0; i < n; i++)  //?????????????? 
	{
		cin >> a;
		cout << factorization(a, 2) << endl;
	}
	return 0;
}

int factorization(int a, int k)
{
	int sum = 1;    //??????? 
	if (a == 1)    //??a?1????? 
	{
		return 0;  
	}
    if (a == 2)    //??a?2??????? 
	{
		return 1;
	}
    int b = (int) sqrt ((double)a);   //?b?a?????? 
	for (int i = k; i <= b ; i++)    //??a???i?????????????????? 
	{
		if (a % i == 0)
		{
            sum += factorization(a / i, i);
		}
	}
    return sum;      //??sum? 
}

